; Function Attrs: nounwind uwtable
define range(i32 -1, -2147483648) i32 @H5S_get_simple_extent_dims(ptr noundef readonly captures(none) %0, ptr noundef captures(address_is_null) %1, ptr noundef captures(address_is_null) %2) local_unnamed_addr #0 {
  %4 = load i8, ptr @H5S_init_g, align 1, !tbaa !3, !range !7, !noundef !8
  %5 = trunc nuw i8 %4 to i1
  %6 = load i8, ptr @H5_libterm_g, align 1, !range !7
  %7 = trunc nuw i8 %6 to i1
  %8 = select i1 %5, i1 true, i1 %7
  br i1 %8, label %16, label %9, !prof !9

9:                                                ; preds = %3
  store i8 1, ptr @H5S_init_g, align 1, !tbaa !3
  %10 = tail call i32 @H5S__init_package()
  %11 = icmp slt i32 %10, 0
  br i1 %11, label %12, label %._crit_edge

._crit_edge:                                      ; preds = %9
  %.pre = load i8, ptr @H5S_init_g, align 1, !tbaa !3, !range !7
  %.pre6 = load i8, ptr @H5_libterm_g, align 1, !range !7
  %.pre7 = trunc nuw i8 %.pre to i1
  %.pre8 = trunc nuw i8 %.pre6 to i1
  br label %16

12:                                               ; preds = %9
  store i8 0, ptr @H5S_init_g, align 1, !tbaa !3
  %13 = load i64, ptr @H5E_FUNC_g, align 8, !tbaa !10
  %14 = load i64, ptr @H5E_CANTINIT_g, align 8, !tbaa !10
  %15 = tail call i32 (ptr, ptr, i32, i64, i64, ptr, ...) @H5E_printf_stack(ptr noundef nonnull @.str.3, ptr noundef nonnull @__func__.H5S_get_simple_extent_dims, i32 noundef 1003, i64 noundef %13, i64 noundef %14, ptr noundef nonnull @.str.4) #10
  br label %26

16:                                               ; preds = %._crit_edge, %3
  %.pre-phi9 = phi i1 [ %.pre8, %._crit_edge ], [ %7, %3 ]
  %.pre-phi = phi i1 [ %.pre7, %._crit_edge ], [ %5, %3 ]
  %17 = xor i1 %.pre-phi9, true
  %18 = select i1 %.pre-phi, i1 true, i1 %17
  br i1 %18, label %19, label %26, !prof !9

19:                                               ; preds = %16
  %20 = tail call i32 @H5S_extent_get_dims(ptr noundef %0, ptr noundef %1, ptr noundef %2)
  %21 = icmp slt i32 %20, 0
  br i1 %21, label %22, label %26

22:                                               ; preds = %19
  %23 = load i64, ptr @H5E_DATASPACE_g, align 8, !tbaa !10
  %24 = load i64, ptr @H5E_CANTGET_g, align 8, !tbaa !10
  %25 = tail call i32 (ptr, ptr, i32, i64, i64, ptr, ...) @H5E_printf_stack(ptr noundef nonnull @.str.3, ptr noundef nonnull @__func__.H5S_get_simple_extent_dims, i32 noundef 1010, i64 noundef %23, i64 noundef %24, ptr noundef nonnull @.str.26) #10
  br label %26

26:                                               ; preds = %12, %22, %19, %16
  %.0 = phi i32 [ -1, %12 ], [ -1, %22 ], [ %20, %19 ], [ -1, %16 ]
  ret i32 %.0
}